; ModuleID = 'source-C-CXX/32/3226.c'
source_filename = "source-C-CXX/32/3226.c"
target datalayout = "e-m:e-p270:32:32-p271:32:32-p272:64:64-i64:64-f80:128-n8:16:32:64-S128"
target triple = "x86_64-pc-linux-gnu"

@.str.5 = private unnamed_addr constant [4 x i8] c"%d\0A\00", align 1

; Function Attrs: nofree nounwind sspstrong uwtable
define dso_local void @com(i8* nocapture readonly %0) local_unnamed_addr #0 {
  %2 = tail call i64 @strlen(i8* noundef nonnull dereferenceable(1) %0) #7
  %3 = trunc i64 %2 to i32
  %4 = icmp sgt i32 %3, 0
  br i1 %4, label %5, label %21

5:                                                ; preds = %1
  %6 = and i64 %2, 4294967295
  br label %7

7:                                                ; preds = %5, %18
  %8 = phi i64 [ 0, %5 ], [ %19, %18 ]
  %9 = getelementptr inbounds i8, i8* %0, i64 %8
  %10 = load i8, i8* %9, align 1, !tbaa !5
  %11 = sext i8 %10 to i32
  switch i32 %11, label %18 [
    i32 65, label %15
    i32 84, label %12
    i32 71, label %13
    i32 67, label %14
  ]

12:                                               ; preds = %7
  br label %15

13:                                               ; preds = %7
  br label %15

14:                                               ; preds = %7
  br label %15

15:                                               ; preds = %7, %14, %13, %12
  %16 = phi i32 [ 65, %12 ], [ 67, %13 ], [ 71, %14 ], [ 84, %7 ]
  %17 = tail call i32 @putchar(i32 %16)
  br label %18

18:                                               ; preds = %15, %7
  %19 = add nuw nsw i64 %8, 1
  %20 = icmp eq i64 %19, %6
  br i1 %20, label %21, label %7, !llvm.loop !8

21:                                               ; preds = %18, %1
  %22 = tail call i32 @putchar(i32 10)
  ret void
}

; Function Attrs: argmemonly mustprogress nofree nosync nounwind willreturn
declare void @llvm.lifetime.start.p0i8(i64 immarg, i8* nocapture) #1

; Function Attrs: argmemonly mustprogress nofree nounwind readonly willreturn
declare i64 @strlen(i8* nocapture) local_unnamed_addr #2

; Function Attrs: argmemonly mustprogress nofree nosync nounwind willreturn
declare void @llvm.lifetime.end.p0i8(i64 immarg, i8* nocapture) #1

; Function Attrs: nounwind sspstrong uwtable
define dso_local i32 @main() local_unnamed_addr #3 {
  %1 = alloca i32, align 4
  %2 = alloca [256 x i8], align 16
  %3 = bitcast i32* %1 to i8*
  call void @llvm.lifetime.start.p0i8(i64 4, i8* nonnull %3) #8
  %4 = call i32 (i8*, ...) @__isoc99_scanf(i8* getelementptr inbounds ([4 x i8], [4 x i8]* @.str.5, i64 0, i64 0), i32* nonnull %1)
  %5 = getelementptr inbounds [256 x i8], [256 x i8]* %2, i64 0, i64 0
  call void @llvm.lifetime.start.p0i8(i64 256, i8* nonnull %5) #8
  %6 = load i32, i32* %1, align 4, !tbaa !10
  %7 = icmp slt i32 %6, 1
  br i1 %7, label %35, label %8

8:                                                ; preds = %0, %30
  %9 = phi i32 [ %32, %30 ], [ 1, %0 ]
  %10 = call i32 (i8*, ...) bitcast (i32 (...)* @gets to i32 (i8*, ...)*)(i8* nonnull %5) #8
  %11 = call i64 @strlen(i8* noundef nonnull dereferenceable(1) %5) #7
  %12 = trunc i64 %11 to i32
  %13 = icmp sgt i32 %12, 0
  br i1 %13, label %14, label %30

14:                                               ; preds = %8
  %15 = and i64 %11, 4294967295
  br label %16

16:                                               ; preds = %27, %14
  %17 = phi i64 [ 0, %14 ], [ %28, %27 ]
  %18 = getelementptr inbounds [256 x i8], [256 x i8]* %2, i64 0, i64 %17
  %19 = load i8, i8* %18, align 1, !tbaa !5
  %20 = sext i8 %19 to i32
  switch i32 %20, label %27 [
    i32 65, label %24
    i32 84, label %21
    i32 71, label %22
    i32 67, label %23
  ]

21:                                               ; preds = %16
  br label %24

22:                                               ; preds = %16
  br label %24

23:                                               ; preds = %16
  br label %24

24:                                               ; preds = %23, %22, %21, %16
  %25 = phi i32 [ 65, %21 ], [ 67, %22 ], [ 71, %23 ], [ 84, %16 ]
  %26 = call i32 @putchar(i32 %25) #8
  br label %27

27:                                               ; preds = %24, %16
  %28 = add nuw nsw i64 %17, 1
  %29 = icmp eq i64 %28, %15
  br i1 %29, label %30, label %16, !llvm.loop !8

30:                                               ; preds = %27, %8
  %31 = call i32 @putchar(i32 10) #8
  %32 = add nuw nsw i32 %9, 1
  %33 = load i32, i32* %1, align 4, !tbaa !10
  %34 = icmp slt i32 %9, %33
  br i1 %34, label %8, label %35, !llvm.loop !12

35:                                               ; preds = %30, %0
  call void @llvm.lifetime.end.p0i8(i64 256, i8* nonnull %5) #8
  call void @llvm.lifetime.end.p0i8(i64 4, i8* nonnull %3) #8
  ret i32 0
}

; Function Attrs: nofree nounwind
declare noundef i32 @__isoc99_scanf(i8* nocapture noundef readonly, ...) local_unnamed_addr #4

declare i32 @gets(...) local_unnamed_addr #5

; Function Attrs: nofree nounwind
declare noundef i32 @putchar(i32 noundef) local_unnamed_addr #6


!llvm.module.flags = !{!0, !1, !2, !3}
!llvm.ident = !{!4}

!0 = !{i32 1, !"wchar_size", i32 4}
!1 = !{i32 7, !"PIC Level", i32 2}
!2 = !{i32 7, !"PIE Level", i32 2}
!3 = !{i32 7, !"uwtable", i32 1}
!4 = !{!"clang version 13.0.0"}
!5 = !{!6, !6, i64 0}
!6 = !{!"omnipotent char", !7, i64 0}
!7 = !{!"Simple C/C++ TBAA"}
!8 = distinct !{!8, !9}
!9 = !{!"llvm.loop.mustprogress"}
!10 = !{!11, !11, i64 0}
!11 = !{!"int", !6, i64 0}
!12 = distinct !{!12, !9}
